target datalayout = "e-m:e-p270:32:32-p271:32:32-p272:64:64-i64:64-i128:128-f80:128-n8:16:32:64-S128"
target triple = "x86_64-pc-linux-gnu"

%struct.FunctionCallInfoBaseData = type { ptr, ptr, ptr, i32, i8, i16, [0 x %struct.NullableDatum] }
%struct.NullableDatum = type { i64, i8 }
%struct.macaddr = type { i8, i8, i8, i8, i8, i8 }

@.str = private unnamed_addr constant [21 x i8] c"%x:%x:%x:%x:%x:%x%1s\00", align 1
@.str.1 = private unnamed_addr constant [21 x i8] c"%x-%x-%x-%x-%x-%x%1s\00", align 1
@.str.2 = private unnamed_addr constant [23 x i8] c"%2x%2x%2x:%2x%2x%2x%1s\00", align 1
@.str.3 = private unnamed_addr constant [23 x i8] c"%2x%2x%2x-%2x%2x%2x%1s\00", align 1
@.str.4 = private unnamed_addr constant [24 x i8] c"%2x%2x.%2x%2x.%2x%2x%1s\00", align 1
@.str.5 = private unnamed_addr constant [24 x i8] c"%2x%2x-%2x%2x-%2x%2x%1s\00", align 1
@.str.6 = private unnamed_addr constant [22 x i8] c"%2x%2x%2x%2x%2x%2x%1s\00", align 1
@.str.7 = private unnamed_addr constant [39 x i8] c"invalid input syntax for type %s: \22%s\22\00", align 1
@.str.8 = private unnamed_addr constant [8 x i8] c"macaddr\00", align 1
@.str.9 = private unnamed_addr constant [6 x i8] c"mac.c\00", align 1
@__func__.macaddr_in = private unnamed_addr constant [11 x i8] c"macaddr_in\00", align 1
@.str.10 = private unnamed_addr constant [45 x i8] c"invalid octet value in \22macaddr\22 value: \22%s\22\00", align 1

; Function Attrs: inlinehint nounwind uwtable
define internal i64 @PointerGetDatum(ptr noundef %0) #2 {
  %2 = alloca ptr, align 8
  store ptr %0, ptr %2, align 8
  %3 = load ptr, ptr %2, align 8
  %4 = ptrtoint ptr %3 to i64
  ret i64 %4
}

; Function Attrs: inlinehint nounwind uwtable
define internal ptr @DatumGetPointer(i64 noundef %0) #2 {
  %2 = alloca i64, align 8
  store i64 %0, ptr %2, align 8
  %3 = load i64, ptr %2, align 8
  %4 = inttoptr i64 %3 to ptr
  ret ptr %4
}

; Function Attrs: inlinehint nounwind uwtable
define internal i64 @MacaddrPGetDatum(ptr noundef %0) #2 {
  %2 = alloca ptr, align 8
  store ptr %0, ptr %2, align 8
  %3 = load ptr, ptr %2, align 8
  %4 = call i64 @PointerGetDatum(ptr noundef %3)
  ret i64 %4
}

; Function Attrs: inlinehint nounwind uwtable
define internal ptr @DatumGetCString(i64 noundef %0) #2 {
  %2 = alloca i64, align 8
  store i64 %0, ptr %2, align 8
  %3 = load i64, ptr %2, align 8
  %4 = call ptr @DatumGetPointer(i64 noundef %3)
  ret ptr %4
}

; Function Attrs: nounwind uwtable
define dso_local i64 @macaddr_in(ptr noundef %0) #0 {
  %2 = alloca i64, align 8
  %3 = alloca ptr, align 8
  %4 = alloca ptr, align 8
  %5 = alloca ptr, align 8
  %6 = alloca ptr, align 8
  %7 = alloca i32, align 4
  %8 = alloca i32, align 4
  %9 = alloca i32, align 4
  %10 = alloca i32, align 4
  %11 = alloca i32, align 4
  %12 = alloca i32, align 4
  %13 = alloca [2 x i8], align 1
  %14 = alloca i32, align 4
  %15 = alloca ptr, align 8
  %16 = alloca i32, align 4
  %17 = alloca ptr, align 8
  store ptr %0, ptr %3, align 8
  call void @llvm.lifetime.start.p0(i64 8, ptr %4) #9
  %18 = load ptr, ptr %3, align 8
  %19 = getelementptr inbounds nuw %struct.FunctionCallInfoBaseData, ptr %18, i32 0, i32 6
  %20 = getelementptr inbounds [0 x %struct.NullableDatum], ptr %19, i64 0, i64 0
  %21 = getelementptr inbounds nuw %struct.NullableDatum, ptr %20, i32 0, i32 0
  %22 = load i64, ptr %21, align 8
  %23 = call ptr @DatumGetCString(i64 noundef %22)
  store ptr %23, ptr %4, align 8
  call void @llvm.lifetime.start.p0(i64 8, ptr %5) #9
  %24 = load ptr, ptr %3, align 8
  %25 = getelementptr inbounds nuw %struct.FunctionCallInfoBaseData, ptr %24, i32 0, i32 1
  %26 = load ptr, ptr %25, align 8
  store ptr %26, ptr %5, align 8
  call void @llvm.lifetime.start.p0(i64 8, ptr %6) #9
  call void @llvm.lifetime.start.p0(i64 4, ptr %7) #9
  call void @llvm.lifetime.start.p0(i64 4, ptr %8) #9
  call void @llvm.lifetime.start.p0(i64 4, ptr %9) #9
  call void @llvm.lifetime.start.p0(i64 4, ptr %10) #9
  call void @llvm.lifetime.start.p0(i64 4, ptr %11) #9
  call void @llvm.lifetime.start.p0(i64 4, ptr %12) #9
  call void @llvm.lifetime.start.p0(i64 2, ptr %13) #9
  call void @llvm.lifetime.start.p0(i64 4, ptr %14) #9
  %27 = load ptr, ptr %4, align 8
  %28 = getelementptr inbounds [2 x i8], ptr %13, i64 0, i64 0
  %29 = call i32 (ptr, ptr, ...) @__isoc99_sscanf(ptr noundef %27, ptr noundef @.str, ptr noundef %7, ptr noundef %8, ptr noundef %9, ptr noundef %10, ptr noundef %11, ptr noundef %12, ptr noundef %28) #9
  store i32 %29, ptr %14, align 4
  %30 = load i32, ptr %14, align 4
  %31 = icmp ne i32 %30, 6
  br i1 %31, label %32, label %36

32:                                               ; preds = %1
  %33 = load ptr, ptr %4, align 8
  %34 = getelementptr inbounds [2 x i8], ptr %13, i64 0, i64 0
  %35 = call i32 (ptr, ptr, ...) @__isoc99_sscanf(ptr noundef %33, ptr noundef @.str.1, ptr noundef %7, ptr noundef %8, ptr noundef %9, ptr noundef %10, ptr noundef %11, ptr noundef %12, ptr noundef %34) #9
  store i32 %35, ptr %14, align 4
  br label %36

36:                                               ; preds = %32, %1
  %37 = load i32, ptr %14, align 4
  %38 = icmp ne i32 %37, 6
  br i1 %38, label %39, label %43

39:                                               ; preds = %36
  %40 = load ptr, ptr %4, align 8
  %41 = getelementptr inbounds [2 x i8], ptr %13, i64 0, i64 0
  %42 = call i32 (ptr, ptr, ...) @__isoc99_sscanf(ptr noundef %40, ptr noundef @.str.2, ptr noundef %7, ptr noundef %8, ptr noundef %9, ptr noundef %10, ptr noundef %11, ptr noundef %12, ptr noundef %41) #9
  store i32 %42, ptr %14, align 4
  br label %43

43:                                               ; preds = %39, %36
  %44 = load i32, ptr %14, align 4
  %45 = icmp ne i32 %44, 6
  br i1 %45, label %46, label %50

46:                                               ; preds = %43
  %47 = load ptr, ptr %4, align 8
  %48 = getelementptr inbounds [2 x i8], ptr %13, i64 0, i64 0
  %49 = call i32 (ptr, ptr, ...) @__isoc99_sscanf(ptr noundef %47, ptr noundef @.str.3, ptr noundef %7, ptr noundef %8, ptr noundef %9, ptr noundef %10, ptr noundef %11, ptr noundef %12, ptr noundef %48) #9
  store i32 %49, ptr %14, align 4
  br label %50

50:                                               ; preds = %46, %43
  %51 = load i32, ptr %14, align 4
  %52 = icmp ne i32 %51, 6
  br i1 %52, label %53, label %57

53:                                               ; preds = %50
  %54 = load ptr, ptr %4, align 8
  %55 = getelementptr inbounds [2 x i8], ptr %13, i64 0, i64 0
  %56 = call i32 (ptr, ptr, ...) @__isoc99_sscanf(ptr noundef %54, ptr noundef @.str.4, ptr noundef %7, ptr noundef %8, ptr noundef %9, ptr noundef %10, ptr noundef %11, ptr noundef %12, ptr noundef %55) #9
  store i32 %56, ptr %14, align 4
  br label %57

57:                                               ; preds = %53, %50
  %58 = load i32, ptr %14, align 4
  %59 = icmp ne i32 %58, 6
  br i1 %59, label %60, label %64

60:                                               ; preds = %57
  %61 = load ptr, ptr %4, align 8
  %62 = getelementptr inbounds [2 x i8], ptr %13, i64 0, i64 0
  %63 = call i32 (ptr, ptr, ...) @__isoc99_sscanf(ptr noundef %61, ptr noundef @.str.5, ptr noundef %7, ptr noundef %8, ptr noundef %9, ptr noundef %10, ptr noundef %11, ptr noundef %12, ptr noundef %62) #9
  store i32 %63, ptr %14, align 4
  br label %64

64:                                               ; preds = %60, %57
  %65 = load i32, ptr %14, align 4
  %66 = icmp ne i32 %65, 6
  br i1 %66, label %67, label %71

67:                                               ; preds = %64
  %68 = load ptr, ptr %4, align 8
  %69 = getelementptr inbounds [2 x i8], ptr %13, i64 0, i64 0
  %70 = call i32 (ptr, ptr, ...) @__isoc99_sscanf(ptr noundef %68, ptr noundef @.str.6, ptr noundef %7, ptr noundef %8, ptr noundef %9, ptr noundef %10, ptr noundef %11, ptr noundef %12, ptr noundef %69) #9
  store i32 %70, ptr %14, align 4
  br label %71

71:                                               ; preds = %67, %64
  %72 = load i32, ptr %14, align 4
  %73 = icmp ne i32 %72, 6
  br i1 %73, label %74, label %90

74:                                               ; preds = %71
  br label %75

75:                                               ; preds = %74
  br label %76

76:                                               ; preds = %75
  call void @llvm.lifetime.start.p0(i64 8, ptr %15) #9
  %77 = load ptr, ptr %5, align 8
  store ptr %77, ptr %15, align 8
  %78 = load ptr, ptr %15, align 8
  %79 = call zeroext i1 @errsave_start(ptr noundef %78, ptr noundef null)
  br i1 %79, label %80, label %85

80:                                               ; preds = %76
  %81 = call i32 @errcode(i32 noundef 33685634)
  %82 = load ptr, ptr %4, align 8
  %83 = call i32 (ptr, ...) @errmsg(ptr noundef @.str.7, ptr noundef @.str.8, ptr noundef %82)
  %84 = load ptr, ptr %15, align 8
  call void @errsave_finish(ptr noundef %84, ptr noundef @.str.9, i32 noundef 95, ptr noundef @__func__.macaddr_in)
  br label %85

85:                                               ; preds = %80, %76
  call void @llvm.lifetime.end.p0(i64 8, ptr %15) #9
  br label %86

86:                                               ; preds = %85
  br label %87

87:                                               ; preds = %86
  store i64 0, ptr %2, align 8
  store i32 1, ptr %16, align 4
  br label %170

88:                                               ; No predecessors!
  br label %89

89:                                               ; preds = %88
  br label %90

90:                                               ; preds = %89, %71
  %91 = load i32, ptr %7, align 4
  %92 = icmp slt i32 %91, 0
  br i1 %92, label %126, label %93

93:                                               ; preds = %90
  %94 = load i32, ptr %7, align 4
  %95 = icmp sgt i32 %94, 255
  br i1 %95, label %126, label %96

96:                                               ; preds = %93
  %97 = load i32, ptr %8, align 4
  %98 = icmp slt i32 %97, 0
  br i1 %98, label %126, label %99

99:                                               ; preds = %96
  %100 = load i32, ptr %8, align 4
  %101 = icmp sgt i32 %100, 255
  br i1 %101, label %126, label %102

102:                                              ; preds = %99
  %103 = load i32, ptr %9, align 4
  %104 = icmp slt i32 %103, 0
  br i1 %104, label %126, label %105

105:                                              ; preds = %102
  %106 = load i32, ptr %9, align 4
  %107 = icmp sgt i32 %106, 255
  br i1 %107, label %126, label %108

108:                                              ; preds = %105
  %109 = load i32, ptr %10, align 4
  %110 = icmp slt i32 %109, 0
  br i1 %110, label %126, label %111

111:                                              ; preds = %108
  %112 = load i32, ptr %10, align 4
  %113 = icmp sgt i32 %112, 255
  br i1 %113, label %126, label %114

114:                                              ; preds = %111
  %115 = load i32, ptr %11, align 4
  %116 = icmp slt i32 %115, 0
  br i1 %116, label %126, label %117

117:                                              ; preds = %114
  %118 = load i32, ptr %11, align 4
  %119 = icmp sgt i32 %118, 255
  br i1 %119, label %126, label %120

120:                                              ; preds = %117
  %121 = load i32, ptr %12, align 4
  %122 = icmp slt i32 %121, 0
  br i1 %122, label %126, label %123

123:                                              ; preds = %120
  %124 = load i32, ptr %12, align 4
  %125 = icmp sgt i32 %124, 255
  br i1 %125, label %126, label %142

126:                                              ; preds = %123, %120, %117, %114, %111, %108, %105, %102, %99, %96, %93, %90
  br label %127

127:                                              ; preds = %126
  br label %128

128:                                              ; preds = %127
  call void @llvm.lifetime.start.p0(i64 8, ptr %17) #9
  %129 = load ptr, ptr %5, align 8
  store ptr %129, ptr %17, align 8
  %130 = load ptr, ptr %17, align 8
  %131 = call zeroext i1 @errsave_start(ptr noundef %130, ptr noundef null)
  br i1 %131, label %132, label %137

132:                                              ; preds = %128
  %133 = call i32 @errcode(i32 noundef 50331778)
  %134 = load ptr, ptr %4, align 8
  %135 = call i32 (ptr, ...) @errmsg(ptr noundef @.str.10, ptr noundef %134)
  %136 = load ptr, ptr %17, align 8
  call void @errsave_finish(ptr noundef %136, ptr noundef @.str.9, i32 noundef 102, ptr noundef @__func__.macaddr_in)
  br label %137

137:                                              ; preds = %132, %128
  call void @llvm.lifetime.end.p0(i64 8, ptr %17) #9
  br label %138

138:                                              ; preds = %137
  br label %139

139:                                              ; preds = %138
  store i64 0, ptr %2, align 8
  store i32 1, ptr %16, align 4
  br label %170

140:                                              ; No predecessors!
  br label %141

141:                                              ; preds = %140
  br label %142

142:                                              ; preds = %141, %123
  %143 = call ptr @palloc(i64 noundef 6)
  store ptr %143, ptr %6, align 8
  %144 = load i32, ptr %7, align 4
  %145 = trunc i32 %144 to i8
  %146 = load ptr, ptr %6, align 8
  %147 = getelementptr inbounds nuw %struct.macaddr, ptr %146, i32 0, i32 0
  store i8 %145, ptr %147, align 1
  %148 = load i32, ptr %8, align 4
  %149 = trunc i32 %148 to i8
  %150 = load ptr, ptr %6, align 8
  %151 = getelementptr inbounds nuw %struct.macaddr, ptr %150, i32 0, i32 1
  store i8 %149, ptr %151, align 1
  %152 = load i32, ptr %9, align 4
  %153 = trunc i32 %152 to i8
  %154 = load ptr, ptr %6, align 8
  %155 = getelementptr inbounds nuw %struct.macaddr, ptr %154, i32 0, i32 2
  store i8 %153, ptr %155, align 1
  %156 = load i32, ptr %10, align 4
  %157 = trunc i32 %156 to i8
  %158 = load ptr, ptr %6, align 8
  %159 = getelementptr inbounds nuw %struct.macaddr, ptr %158, i32 0, i32 3
  store i8 %157, ptr %159, align 1
  %160 = load i32, ptr %11, align 4
  %161 = trunc i32 %160 to i8
  %162 = load ptr, ptr %6, align 8
  %163 = getelementptr inbounds nuw %struct.macaddr, ptr %162, i32 0, i32 4
  store i8 %161, ptr %163, align 1
  %164 = load i32, ptr %12, align 4
  %165 = trunc i32 %164 to i8
  %166 = load ptr, ptr %6, align 8
  %167 = getelementptr inbounds nuw %struct.macaddr, ptr %166, i32 0, i32 5
  store i8 %165, ptr %167, align 1
  %168 = load ptr, ptr %6, align 8
  %169 = call i64 @MacaddrPGetDatum(ptr noundef %168)
  store i64 %169, ptr %2, align 8
  store i32 1, ptr %16, align 4
  br label %170

170:                                              ; preds = %142, %139, %87
  call void @llvm.lifetime.end.p0(i64 4, ptr %14) #9
  call void @llvm.lifetime.end.p0(i64 2, ptr %13) #9
  call void @llvm.lifetime.end.p0(i64 4, ptr %12) #9
  call void @llvm.lifetime.end.p0(i64 4, ptr %11) #9
  call void @llvm.lifetime.end.p0(i64 4, ptr %10) #9
  call void @llvm.lifetime.end.p0(i64 4, ptr %9) #9
  call void @llvm.lifetime.end.p0(i64 4, ptr %8) #9
  call void @llvm.lifetime.end.p0(i64 4, ptr %7) #9
  call void @llvm.lifetime.end.p0(i64 8, ptr %6) #9
  call void @llvm.lifetime.end.p0(i64 8, ptr %5) #9
  call void @llvm.lifetime.end.p0(i64 8, ptr %4) #9
  %171 = load i64, ptr %2, align 8
  ret i64 %171
}