; Function Attrs: nounwind uwtable
define dso_local noundef i64 @macaddr_in(ptr noundef readonly captures(none) %0) local_unnamed_addr #0 {
  %2 = alloca i32, align 4
  %3 = alloca i32, align 4
  %4 = alloca i32, align 4
  %5 = alloca i32, align 4
  %6 = alloca i32, align 4
  %7 = alloca i32, align 4
  %8 = alloca [2 x i8], align 1
  %9 = getelementptr inbounds nuw i8, ptr %0, i64 32
  %10 = load i64, ptr %9, align 8
  %11 = inttoptr i64 %10 to ptr
  %12 = getelementptr inbounds nuw i8, ptr %0, i64 8
  %13 = load ptr, ptr %12, align 8
  call void @llvm.lifetime.start.p0(i64 4, ptr nonnull %2) #7
  call void @llvm.lifetime.start.p0(i64 4, ptr nonnull %3) #7
  call void @llvm.lifetime.start.p0(i64 4, ptr nonnull %4) #7
  call void @llvm.lifetime.start.p0(i64 4, ptr nonnull %5) #7
  call void @llvm.lifetime.start.p0(i64 4, ptr nonnull %6) #7
  call void @llvm.lifetime.start.p0(i64 4, ptr nonnull %7) #7
  call void @llvm.lifetime.start.p0(i64 2, ptr nonnull %8) #7
  %14 = call i32 (ptr, ptr, ...) @__isoc99_sscanf(ptr noundef %11, ptr noundef nonnull @.str, ptr noundef nonnull %2, ptr noundef nonnull %3, ptr noundef nonnull %4, ptr noundef nonnull %5, ptr noundef nonnull %6, ptr noundef nonnull %7, ptr noundef nonnull %8) #7
  %.not = icmp eq i32 %14, 6
  br i1 %.not, label %.critedge64, label %15

15:                                               ; preds = %1
  %16 = call i32 (ptr, ptr, ...) @__isoc99_sscanf(ptr noundef %11, ptr noundef nonnull @.str.1, ptr noundef nonnull %2, ptr noundef nonnull %3, ptr noundef nonnull %4, ptr noundef nonnull %5, ptr noundef nonnull %6, ptr noundef nonnull %7, ptr noundef nonnull %8) #7
  %17 = icmp eq i32 %16, 6
  br i1 %17, label %.critedge64, label %.critedge

.critedge:                                        ; preds = %15
  %18 = call i32 (ptr, ptr, ...) @__isoc99_sscanf(ptr noundef %11, ptr noundef nonnull @.str.2, ptr noundef nonnull %2, ptr noundef nonnull %3, ptr noundef nonnull %4, ptr noundef nonnull %5, ptr noundef nonnull %6, ptr noundef nonnull %7, ptr noundef nonnull %8) #7
  %19 = icmp eq i32 %18, 6
  br i1 %19, label %.critedge64, label %.critedge60

.critedge60:                                      ; preds = %.critedge
  %20 = call i32 (ptr, ptr, ...) @__isoc99_sscanf(ptr noundef %11, ptr noundef nonnull @.str.3, ptr noundef nonnull %2, ptr noundef nonnull %3, ptr noundef nonnull %4, ptr noundef nonnull %5, ptr noundef nonnull %6, ptr noundef nonnull %7, ptr noundef nonnull %8) #7
  %21 = icmp eq i32 %20, 6
  br i1 %21, label %.critedge64, label %.critedge61

.critedge61:                                      ; preds = %.critedge60
  %22 = call i32 (ptr, ptr, ...) @__isoc99_sscanf(ptr noundef %11, ptr noundef nonnull @.str.4, ptr noundef nonnull %2, ptr noundef nonnull %3, ptr noundef nonnull %4, ptr noundef nonnull %5, ptr noundef nonnull %6, ptr noundef nonnull %7, ptr noundef nonnull %8) #7
  %23 = icmp eq i32 %22, 6
  br i1 %23, label %.critedge64, label %.critedge62

.critedge62:                                      ; preds = %.critedge61
  %24 = call i32 (ptr, ptr, ...) @__isoc99_sscanf(ptr noundef %11, ptr noundef nonnull @.str.5, ptr noundef nonnull %2, ptr noundef nonnull %3, ptr noundef nonnull %4, ptr noundef nonnull %5, ptr noundef nonnull %6, ptr noundef nonnull %7, ptr noundef nonnull %8) #7
  %25 = icmp eq i32 %24, 6
  br i1 %25, label %.critedge64, label %.critedge63

.critedge63:                                      ; preds = %.critedge62
  %26 = call i32 (ptr, ptr, ...) @__isoc99_sscanf(ptr noundef %11, ptr noundef nonnull @.str.6, ptr noundef nonnull %2, ptr noundef nonnull %3, ptr noundef nonnull %4, ptr noundef nonnull %5, ptr noundef nonnull %6, ptr noundef nonnull %7, ptr noundef nonnull %8) #7
  %27 = icmp eq i32 %26, 6
  br i1 %27, label %.critedge64, label %28

28:                                               ; preds = %.critedge63
  %29 = call zeroext i1 @errsave_start(ptr noundef %13, ptr noundef null) #7
  br i1 %29, label %30, label %69

30:                                               ; preds = %28
  %31 = call i32 @errcode(i32 noundef 33685634) #7
  %32 = call i32 (ptr, ...) @errmsg(ptr noundef nonnull @.str.7, ptr noundef nonnull @.str.8, ptr noundef %11) #7
  call void @errsave_finish(ptr noundef %13, ptr noundef nonnull @.str.9, i32 noundef 95, ptr noundef nonnull @__func__.macaddr_in) #7
  br label %69

.critedge64:                                      ; preds = %.critedge62, %.critedge60, %15, %1, %.critedge, %.critedge61, %.critedge63
  %33 = load i32, ptr %2, align 4
  %or.cond = icmp ugt i32 %33, 255
  %34 = load i32, ptr %3, align 4
  %35 = icmp ugt i32 %34, 255
  %or.cond5 = select i1 %or.cond, i1 true, i1 %35
  %36 = load i32, ptr %4, align 4
  %37 = icmp ugt i32 %36, 255
  %or.cond9 = select i1 %or.cond5, i1 true, i1 %37
  %38 = load i32, ptr %5, align 4
  %39 = icmp ugt i32 %38, 255
  %or.cond13 = select i1 %or.cond9, i1 true, i1 %39
  %40 = load i32, ptr %6, align 4
  %41 = icmp ugt i32 %40, 255
  %or.cond17 = select i1 %or.cond13, i1 true, i1 %41
  %42 = load i32, ptr %7, align 4
  %43 = icmp ugt i32 %42, 255
  %or.cond21 = select i1 %or.cond17, i1 true, i1 %43
  br i1 %or.cond21, label %44, label %49

44:                                               ; preds = %.critedge64
  %45 = call zeroext i1 @errsave_start(ptr noundef %13, ptr noundef null) #7
  br i1 %45, label %46, label %69

46:                                               ; preds = %44
  %47 = call i32 @errcode(i32 noundef 50331778) #7
  %48 = call i32 (ptr, ...) @errmsg(ptr noundef nonnull @.str.10, ptr noundef %11) #7
  call void @errsave_finish(ptr noundef %13, ptr noundef nonnull @.str.9, i32 noundef 102, ptr noundef nonnull @__func__.macaddr_in) #7
  br label %69

49:                                               ; preds = %.critedge64
  %50 = call ptr @palloc(i64 noundef 6) #7
  %51 = load i32, ptr %2, align 4
  %52 = trunc i32 %51 to i8
  store i8 %52, ptr %50, align 1
  %53 = load i32, ptr %3, align 4
  %54 = trunc i32 %53 to i8
  %55 = getelementptr inbounds nuw i8, ptr %50, i64 1
  store i8 %54, ptr %55, align 1
  %56 = load i32, ptr %4, align 4
  %57 = trunc i32 %56 to i8
  %58 = getelementptr inbounds nuw i8, ptr %50, i64 2
  store i8 %57, ptr %58, align 1
  %59 = load i32, ptr %5, align 4
  %60 = trunc i32 %59 to i8
  %61 = getelementptr inbounds nuw i8, ptr %50, i64 3
  store i8 %60, ptr %61, align 1
  %62 = load i32, ptr %6, align 4
  %63 = trunc i32 %62 to i8
  %64 = getelementptr inbounds nuw i8, ptr %50, i64 4
  store i8 %63, ptr %64, align 1
  %65 = load i32, ptr %7, align 4
  %66 = trunc i32 %65 to i8
  %67 = getelementptr inbounds nuw i8, ptr %50, i64 5
  store i8 %66, ptr %67, align 1
  %68 = ptrtoint ptr %50 to i64
  br label %69

69:                                               ; preds = %44, %46, %28, %30, %49
  %.0 = phi i64 [ %68, %49 ], [ 0, %30 ], [ 0, %28 ], [ 0, %46 ], [ 0, %44 ]
  call void @llvm.lifetime.end.p0(i64 2, ptr nonnull %8) #7
  call void @llvm.lifetime.end.p0(i64 4, ptr nonnull %7) #7
  call void @llvm.lifetime.end.p0(i64 4, ptr nonnull %6) #7
  call void @llvm.lifetime.end.p0(i64 4, ptr nonnull %5) #7
  call void @llvm.lifetime.end.p0(i64 4, ptr nonnull %4) #7
  call void @llvm.lifetime.end.p0(i64 4, ptr nonnull %3) #7
  call void @llvm.lifetime.end.p0(i64 4, ptr nonnull %2) #7
  ret i64 %.0
}